CCS PCM C Compiler, Version 5.015, 5967               31-May-19 02:42

               Filename:   C:\Users\mp3fr\OneDrive\microcontroller\slave_one_pic\theta_f\main.lst

               ROM used:   1860 words (23%)
                           Largest free fragment is 2048
               RAM used:   73 (20%) at main() level
                           88 (24%) worst case
               Stack used: 2 locations (1 in main + 1 for interrupts)
               Stack size: 8

*
0000:  MOVLW  03
0001:  MOVWF  0A
0002:  GOTO   3C1
0003:  NOP
0004:  MOVWF  7F
0005:  SWAPF  03,W
0006:  CLRF   03
0007:  MOVWF  21
0008:  MOVF   0A,W
0009:  MOVWF  20
000A:  CLRF   0A
000B:  MOVF   04,W
000C:  MOVWF  22
000D:  MOVF   77,W
000E:  MOVWF  23
000F:  MOVF   78,W
0010:  MOVWF  24
0011:  MOVF   79,W
0012:  MOVWF  25
0013:  MOVF   7A,W
0014:  MOVWF  26
0015:  BCF    03.7
0016:  BCF    03.5
0017:  BTFSS  0B.3
0018:  GOTO   01B
0019:  BTFSC  0B.0
001A:  GOTO   032
001B:  MOVLW  8C
001C:  MOVWF  04
001D:  BTFSS  00.3
001E:  GOTO   021
001F:  BTFSC  0C.3
0020:  GOTO   035
0021:  MOVF   22,W
0022:  MOVWF  04
0023:  MOVF   23,W
0024:  MOVWF  77
0025:  MOVF   24,W
0026:  MOVWF  78
0027:  MOVF   25,W
0028:  MOVWF  79
0029:  MOVF   26,W
002A:  MOVWF  7A
002B:  MOVF   20,W
002C:  MOVWF  0A
002D:  SWAPF  21,W
002E:  MOVWF  03
002F:  SWAPF  7F,F
0030:  SWAPF  7F,W
0031:  RETFIE
0032:  BCF    0A.3
0033:  BCF    0A.4
0034:  GOTO   038
0035:  BCF    0A.3
0036:  BCF    0A.4
0037:  GOTO   059
.................... #include <16F877A.h> 
.................... //////////// Standard Header file for the PIC16F877A device //////////////// 
.................... /////////////////////////////////////////////////////////////////////////// 
.................... ////        (C) Copyright 1996, 2013 Custom Computer Services          //// 
.................... //// This source code may only be used by licensed users of the CCS C  //// 
.................... //// compiler.  This source code may only be distributed to other      //// 
.................... //// licensed users of the CCS C compiler.  No other use, reproduction //// 
.................... //// or distribution is permitted without written permission.          //// 
.................... //// Derivative programs created using this software in object code    //// 
.................... //// form are not restricted in any way.                               //// 
.................... /////////////////////////////////////////////////////////////////////////// 
.................... #device PIC16F877A 
*
009F:  MOVLW  8E
00A0:  MOVWF  77
00A1:  MOVF   61,W
00A2:  MOVWF  78
00A3:  MOVF   60,W
00A4:  MOVWF  79
00A5:  CLRF   7A
00A6:  BTFSS  61.7
00A7:  GOTO   0AD
00A8:  COMF   78,F
00A9:  COMF   79,F
00AA:  INCF   79,F
00AB:  BTFSC  03.2
00AC:  INCF   78,F
00AD:  MOVF   78,F
00AE:  BTFSS  03.2
00AF:  GOTO   0BA
00B0:  MOVF   79,W
00B1:  MOVWF  78
00B2:  CLRF   79
00B3:  MOVLW  08
00B4:  SUBWF  77,F
00B5:  MOVF   78,F
00B6:  BTFSS  03.2
00B7:  GOTO   0BA
00B8:  CLRF   77
00B9:  GOTO   0C3
00BA:  BCF    03.0
00BB:  BTFSC  78.7
00BC:  GOTO   0C1
00BD:  RLF    79,F
00BE:  RLF    78,F
00BF:  DECF   77,F
00C0:  GOTO   0BA
00C1:  BTFSS  61.7
00C2:  BCF    78.7
00C3:  RETURN
00C4:  MOVF   60,W
00C5:  BTFSC  03.2
00C6:  GOTO   189
00C7:  MOVWF  6C
00C8:  MOVF   64,W
00C9:  BTFSC  03.2
00CA:  GOTO   189
00CB:  SUBWF  6C,F
00CC:  BTFSS  03.0
00CD:  GOTO   0D3
00CE:  MOVLW  7F
00CF:  ADDWF  6C,F
00D0:  BTFSC  03.0
00D1:  GOTO   189
00D2:  GOTO   0D9
00D3:  MOVLW  81
00D4:  SUBWF  6C,F
00D5:  BTFSS  03.0
00D6:  GOTO   189
00D7:  BTFSC  03.2
00D8:  GOTO   189
00D9:  MOVF   6C,W
00DA:  MOVWF  77
00DB:  CLRF   78
00DC:  CLRF   79
00DD:  CLRF   7A
00DE:  CLRF   6B
00DF:  MOVF   61,W
00E0:  MOVWF  6A
00E1:  BSF    6A.7
00E2:  MOVF   62,W
00E3:  MOVWF  69
00E4:  MOVF   63,W
00E5:  MOVWF  68
00E6:  MOVLW  19
00E7:  MOVWF  6C
00E8:  MOVF   67,W
00E9:  SUBWF  68,F
00EA:  BTFSC  03.0
00EB:  GOTO   0FC
00EC:  MOVLW  01
00ED:  SUBWF  69,F
00EE:  BTFSC  03.0
00EF:  GOTO   0FC
00F0:  SUBWF  6A,F
00F1:  BTFSC  03.0
00F2:  GOTO   0FC
00F3:  SUBWF  6B,F
00F4:  BTFSC  03.0
00F5:  GOTO   0FC
00F6:  INCF   6B,F
00F7:  INCF   6A,F
00F8:  INCF   69,F
00F9:  MOVF   67,W
00FA:  ADDWF  68,F
00FB:  GOTO   12E
00FC:  MOVF   66,W
00FD:  SUBWF  69,F
00FE:  BTFSC  03.0
00FF:  GOTO   117
0100:  MOVLW  01
0101:  SUBWF  6A,F
0102:  BTFSC  03.0
0103:  GOTO   117
0104:  SUBWF  6B,F
0105:  BTFSC  03.0
0106:  GOTO   117
0107:  INCF   6B,F
0108:  INCF   6A,F
0109:  MOVF   66,W
010A:  ADDWF  69,F
010B:  MOVF   67,W
010C:  ADDWF  68,F
010D:  BTFSS  03.0
010E:  GOTO   12E
010F:  INCF   69,F
0110:  BTFSS  03.2
0111:  GOTO   12E
0112:  INCF   6A,F
0113:  BTFSS  03.2
0114:  GOTO   12E
0115:  INCF   6B,F
0116:  GOTO   12E
0117:  MOVF   65,W
0118:  IORLW  80
0119:  SUBWF  6A,F
011A:  BTFSC  03.0
011B:  GOTO   12D
011C:  MOVLW  01
011D:  SUBWF  6B,F
011E:  BTFSC  03.0
011F:  GOTO   12D
0120:  INCF   6B,F
0121:  MOVF   65,W
0122:  IORLW  80
0123:  ADDWF  6A,F
0124:  MOVF   66,W
0125:  ADDWF  69,F
0126:  BTFSS  03.0
0127:  GOTO   10B
0128:  INCF   6A,F
0129:  BTFSS  03.2
012A:  GOTO   10B
012B:  INCF   6B,F
012C:  GOTO   10B
012D:  BSF    7A.0
012E:  DECFSZ 6C,F
012F:  GOTO   131
0130:  GOTO   13C
0131:  BCF    03.0
0132:  RLF    68,F
0133:  RLF    69,F
0134:  RLF    6A,F
0135:  RLF    6B,F
0136:  BCF    03.0
0137:  RLF    7A,F
0138:  RLF    79,F
0139:  RLF    78,F
013A:  RLF    6D,F
013B:  GOTO   0E8
013C:  BTFSS  6D.0
013D:  GOTO   144
013E:  BCF    03.0
013F:  RRF    78,F
0140:  RRF    79,F
0141:  RRF    7A,F
0142:  RRF    6D,F
0143:  GOTO   147
0144:  DECF   77,F
0145:  BTFSC  03.2
0146:  GOTO   189
0147:  BTFSC  6D.7
0148:  GOTO   170
0149:  BCF    03.0
014A:  RLF    68,F
014B:  RLF    69,F
014C:  RLF    6A,F
014D:  RLF    6B,F
014E:  MOVF   67,W
014F:  SUBWF  68,F
0150:  BTFSC  03.0
0151:  GOTO   15C
0152:  MOVLW  01
0153:  SUBWF  69,F
0154:  BTFSC  03.0
0155:  GOTO   15C
0156:  SUBWF  6A,F
0157:  BTFSC  03.0
0158:  GOTO   15C
0159:  SUBWF  6B,F
015A:  BTFSS  03.0
015B:  GOTO   17F
015C:  MOVF   66,W
015D:  SUBWF  69,F
015E:  BTFSC  03.0
015F:  GOTO   167
0160:  MOVLW  01
0161:  SUBWF  6A,F
0162:  BTFSC  03.0
0163:  GOTO   167
0164:  SUBWF  6B,F
0165:  BTFSS  03.0
0166:  GOTO   17F
0167:  MOVF   65,W
0168:  IORLW  80
0169:  SUBWF  6A,F
016A:  BTFSC  03.0
016B:  GOTO   170
016C:  MOVLW  01
016D:  SUBWF  6B,F
016E:  BTFSS  03.0
016F:  GOTO   17F
0170:  INCF   7A,F
0171:  BTFSS  03.2
0172:  GOTO   17F
0173:  INCF   79,F
0174:  BTFSS  03.2
0175:  GOTO   17F
0176:  INCF   78,F
0177:  BTFSS  03.2
0178:  GOTO   17F
0179:  INCF   77,F
017A:  BTFSC  03.2
017B:  GOTO   189
017C:  RRF    78,F
017D:  RRF    79,F
017E:  RRF    7A,F
017F:  MOVF   61,W
0180:  MOVWF  6C
0181:  MOVF   65,W
0182:  XORWF  6C,F
0183:  BTFSS  6C.7
0184:  GOTO   187
0185:  BSF    78.7
0186:  GOTO   18D
0187:  BCF    78.7
0188:  GOTO   18D
0189:  CLRF   77
018A:  CLRF   78
018B:  CLRF   79
018C:  CLRF   7A
018D:  RETURN
018E:  MOVF   64,W
018F:  BTFSC  03.2
0190:  GOTO   1FE
0191:  MOVWF  6C
0192:  MOVF   68,W
0193:  BTFSC  03.2
0194:  GOTO   1FE
0195:  ADDWF  6C,F
0196:  BTFSC  03.0
0197:  GOTO   19F
0198:  MOVLW  7F
0199:  SUBWF  6C,F
019A:  BTFSS  03.0
019B:  GOTO   1FE
019C:  BTFSC  03.2
019D:  GOTO   1FE
019E:  GOTO   1A3
019F:  MOVLW  81
01A0:  ADDWF  6C,F
01A1:  BTFSC  03.0
01A2:  GOTO   1FE
01A3:  MOVF   6C,W
01A4:  MOVWF  77
01A5:  CLRF   78
01A6:  CLRF   79
01A7:  CLRF   7A
01A8:  MOVF   65,W
01A9:  MOVWF  70
01AA:  BSF    70.7
01AB:  MOVF   66,W
01AC:  MOVWF  6F
01AD:  MOVF   67,W
01AE:  MOVWF  6E
01AF:  MOVLW  18
01B0:  MOVWF  6C
01B1:  CLRF   6D
01B2:  BTFSS  6E.0
01B3:  GOTO   1CC
01B4:  MOVF   6B,W
01B5:  ADDWF  7A,F
01B6:  BTFSS  03.0
01B7:  GOTO   1BE
01B8:  INCF   79,F
01B9:  BTFSS  03.2
01BA:  GOTO   1BE
01BB:  INCF   78,F
01BC:  BTFSC  03.2
01BD:  BSF    6D.7
01BE:  MOVF   6A,W
01BF:  ADDWF  79,F
01C0:  BTFSS  03.0
01C1:  GOTO   1C5
01C2:  INCF   78,F
01C3:  BTFSC  03.2
01C4:  BSF    6D.7
01C5:  MOVF   69,W
01C6:  MOVWF  66
01C7:  BSF    66.7
01C8:  MOVF   66,W
01C9:  ADDWF  78,F
01CA:  BTFSC  03.0
01CB:  BSF    6D.7
01CC:  RLF    6D,F
01CD:  RRF    78,F
01CE:  RRF    79,F
01CF:  RRF    7A,F
01D0:  RRF    70,F
01D1:  RRF    6F,F
01D2:  RRF    6E,F
01D3:  BCF    03.0
01D4:  DECFSZ 6C,F
01D5:  GOTO   1B1
01D6:  MOVLW  01
01D7:  ADDWF  77,F
01D8:  BTFSC  03.0
01D9:  GOTO   1FE
01DA:  BTFSC  78.7
01DB:  GOTO   1E3
01DC:  RLF    70,F
01DD:  RLF    7A,F
01DE:  RLF    79,F
01DF:  RLF    78,F
01E0:  DECF   77,F
01E1:  BTFSC  03.2
01E2:  GOTO   1FE
01E3:  BTFSS  70.7
01E4:  GOTO   1F4
01E5:  INCF   7A,F
01E6:  BTFSS  03.2
01E7:  GOTO   1F4
01E8:  INCF   79,F
01E9:  BTFSS  03.2
01EA:  GOTO   1F4
01EB:  INCF   78,F
01EC:  BTFSS  03.2
01ED:  GOTO   1F4
01EE:  RRF    78,F
01EF:  RRF    79,F
01F0:  RRF    7A,F
01F1:  INCF   77,F
01F2:  BTFSC  03.2
01F3:  GOTO   1FE
01F4:  MOVF   65,W
01F5:  MOVWF  6D
01F6:  MOVF   69,W
01F7:  XORWF  6D,F
01F8:  BTFSS  6D.7
01F9:  GOTO   1FC
01FA:  BSF    78.7
01FB:  GOTO   202
01FC:  BCF    78.7
01FD:  GOTO   202
01FE:  CLRF   77
01FF:  CLRF   78
0200:  CLRF   79
0201:  CLRF   7A
0202:  RETURN
0203:  MOVLW  80
0204:  BTFSC  03.1
0205:  XORWF  65,F
0206:  CLRF   6A
0207:  CLRF   6B
0208:  MOVF   61,W
0209:  MOVWF  69
020A:  MOVF   65,W
020B:  XORWF  69,F
020C:  MOVF   60,W
020D:  BTFSC  03.2
020E:  GOTO   2F3
020F:  MOVWF  68
0210:  MOVWF  77
0211:  MOVF   64,W
0212:  BTFSC  03.2
0213:  GOTO   2FC
0214:  SUBWF  68,F
0215:  BTFSC  03.2
0216:  GOTO   298
0217:  BTFSS  03.0
0218:  GOTO   256
0219:  MOVF   65,W
021A:  MOVWF  6E
021B:  BSF    6E.7
021C:  MOVF   66,W
021D:  MOVWF  6D
021E:  MOVF   67,W
021F:  MOVWF  6C
0220:  CLRF   6B
0221:  BCF    03.0
0222:  RRF    6E,F
0223:  RRF    6D,F
0224:  RRF    6C,F
0225:  RRF    6B,F
0226:  DECFSZ 68,F
0227:  GOTO   220
0228:  BTFSS  69.7
0229:  GOTO   22D
022A:  BSF    6A.0
022B:  GOTO   310
022C:  BCF    6A.0
022D:  BCF    68.0
022E:  BSF    6A.4
022F:  MOVLW  63
0230:  MOVWF  04
0231:  BCF    03.7
0232:  GOTO   325
0233:  BCF    6A.4
0234:  BTFSC  69.7
0235:  GOTO   240
0236:  BTFSS  68.0
0237:  GOTO   24B
0238:  RRF    6E,F
0239:  RRF    6D,F
023A:  RRF    6C,F
023B:  RRF    6B,F
023C:  INCF   77,F
023D:  BTFSC  03.2
023E:  GOTO   30B
023F:  GOTO   24B
0240:  BTFSC  6E.7
0241:  GOTO   24E
0242:  BCF    03.0
0243:  RLF    6B,F
0244:  RLF    6C,F
0245:  RLF    6D,F
0246:  RLF    6E,F
0247:  DECF   77,F
0248:  BTFSC  03.2
0249:  GOTO   30B
024A:  GOTO   240
024B:  BSF    6A.6
024C:  GOTO   2B8
024D:  BCF    6A.6
024E:  MOVF   61,W
024F:  MOVWF  69
0250:  BTFSS  69.7
0251:  GOTO   254
0252:  BSF    6E.7
0253:  GOTO   304
0254:  BCF    6E.7
0255:  GOTO   304
0256:  MOVF   64,W
0257:  MOVWF  68
0258:  MOVWF  77
0259:  MOVF   60,W
025A:  SUBWF  68,F
025B:  MOVF   61,W
025C:  MOVWF  6E
025D:  BSF    6E.7
025E:  MOVF   62,W
025F:  MOVWF  6D
0260:  MOVF   63,W
0261:  MOVWF  6C
0262:  CLRF   6B
0263:  BCF    03.0
0264:  RRF    6E,F
0265:  RRF    6D,F
0266:  RRF    6C,F
0267:  RRF    6B,F
0268:  DECFSZ 68,F
0269:  GOTO   262
026A:  BTFSS  69.7
026B:  GOTO   26F
026C:  BSF    6A.1
026D:  GOTO   310
026E:  BCF    6A.1
026F:  BCF    68.0
0270:  BSF    6A.5
0271:  MOVLW  67
0272:  MOVWF  04
0273:  BCF    03.7
0274:  GOTO   325
0275:  BCF    6A.5
0276:  BTFSC  69.7
0277:  GOTO   282
0278:  BTFSS  68.0
0279:  GOTO   28D
027A:  RRF    6E,F
027B:  RRF    6D,F
027C:  RRF    6C,F
027D:  RRF    6B,F
027E:  INCF   77,F
027F:  BTFSC  03.2
0280:  GOTO   30B
0281:  GOTO   28D
0282:  BTFSC  6E.7
0283:  GOTO   290
0284:  BCF    03.0
0285:  RLF    6B,F
0286:  RLF    6C,F
0287:  RLF    6D,F
0288:  RLF    6E,F
0289:  DECF   77,F
028A:  BTFSC  03.2
028B:  GOTO   30B
028C:  GOTO   282
028D:  BSF    6A.7
028E:  GOTO   2B8
028F:  BCF    6A.7
0290:  MOVF   65,W
0291:  MOVWF  69
0292:  BTFSS  69.7
0293:  GOTO   296
0294:  BSF    6E.7
0295:  GOTO   304
0296:  BCF    6E.7
0297:  GOTO   304
0298:  MOVF   65,W
0299:  MOVWF  6E
029A:  BSF    6E.7
029B:  MOVF   66,W
029C:  MOVWF  6D
029D:  MOVF   67,W
029E:  MOVWF  6C
029F:  BTFSS  69.7
02A0:  GOTO   2A5
02A1:  BCF    6E.7
02A2:  BSF    6A.2
02A3:  GOTO   310
02A4:  BCF    6A.2
02A5:  CLRF   6B
02A6:  BCF    68.0
02A7:  MOVLW  63
02A8:  MOVWF  04
02A9:  BCF    03.7
02AA:  GOTO   325
02AB:  BTFSC  69.7
02AC:  GOTO   2CE
02AD:  MOVF   61,W
02AE:  MOVWF  69
02AF:  BTFSS  68.0
02B0:  GOTO   2B8
02B1:  RRF    6E,F
02B2:  RRF    6D,F
02B3:  RRF    6C,F
02B4:  RRF    6B,F
02B5:  INCF   77,F
02B6:  BTFSC  03.2
02B7:  GOTO   30B
02B8:  BTFSS  6B.7
02B9:  GOTO   2C9
02BA:  INCF   6C,F
02BB:  BTFSS  03.2
02BC:  GOTO   2C9
02BD:  INCF   6D,F
02BE:  BTFSS  03.2
02BF:  GOTO   2C9
02C0:  INCF   6E,F
02C1:  BTFSS  03.2
02C2:  GOTO   2C9
02C3:  RRF    6E,F
02C4:  RRF    6D,F
02C5:  RRF    6C,F
02C6:  INCF   77,F
02C7:  BTFSC  03.2
02C8:  GOTO   30B
02C9:  BTFSC  6A.6
02CA:  GOTO   24D
02CB:  BTFSC  6A.7
02CC:  GOTO   28F
02CD:  GOTO   2ED
02CE:  MOVLW  80
02CF:  XORWF  6E,F
02D0:  BTFSS  6E.7
02D1:  GOTO   2D6
02D2:  GOTO   310
02D3:  MOVF   65,W
02D4:  MOVWF  69
02D5:  GOTO   2E3
02D6:  MOVF   61,W
02D7:  MOVWF  69
02D8:  MOVF   6E,F
02D9:  BTFSS  03.2
02DA:  GOTO   2E3
02DB:  MOVF   6D,F
02DC:  BTFSS  03.2
02DD:  GOTO   2E3
02DE:  MOVF   6C,F
02DF:  BTFSS  03.2
02E0:  GOTO   2E3
02E1:  CLRF   77
02E2:  GOTO   304
02E3:  BTFSC  6E.7
02E4:  GOTO   2ED
02E5:  BCF    03.0
02E6:  RLF    6B,F
02E7:  RLF    6C,F
02E8:  RLF    6D,F
02E9:  RLF    6E,F
02EA:  DECFSZ 77,F
02EB:  GOTO   2E3
02EC:  GOTO   30B
02ED:  BTFSS  69.7
02EE:  GOTO   2F1
02EF:  BSF    6E.7
02F0:  GOTO   304
02F1:  BCF    6E.7
02F2:  GOTO   304
02F3:  MOVF   64,W
02F4:  MOVWF  77
02F5:  MOVF   65,W
02F6:  MOVWF  6E
02F7:  MOVF   66,W
02F8:  MOVWF  6D
02F9:  MOVF   67,W
02FA:  MOVWF  6C
02FB:  GOTO   304
02FC:  MOVF   60,W
02FD:  MOVWF  77
02FE:  MOVF   61,W
02FF:  MOVWF  6E
0300:  MOVF   62,W
0301:  MOVWF  6D
0302:  MOVF   63,W
0303:  MOVWF  6C
0304:  MOVF   6E,W
0305:  MOVWF  78
0306:  MOVF   6D,W
0307:  MOVWF  79
0308:  MOVF   6C,W
0309:  MOVWF  7A
030A:  GOTO   343
030B:  CLRF   77
030C:  CLRF   78
030D:  CLRF   79
030E:  CLRF   7A
030F:  GOTO   343
0310:  CLRF   6B
0311:  COMF   6C,F
0312:  COMF   6D,F
0313:  COMF   6E,F
0314:  COMF   6B,F
0315:  INCF   6B,F
0316:  BTFSS  03.2
0317:  GOTO   31E
0318:  INCF   6C,F
0319:  BTFSS  03.2
031A:  GOTO   31E
031B:  INCF   6D,F
031C:  BTFSC  03.2
031D:  INCF   6E,F
031E:  BTFSC  6A.0
031F:  GOTO   22C
0320:  BTFSC  6A.1
0321:  GOTO   26E
0322:  BTFSC  6A.2
0323:  GOTO   2A4
0324:  GOTO   2D3
0325:  MOVF   00,W
0326:  ADDWF  6C,F
0327:  BTFSS  03.0
0328:  GOTO   32F
0329:  INCF   6D,F
032A:  BTFSS  03.2
032B:  GOTO   32F
032C:  INCF   6E,F
032D:  BTFSC  03.2
032E:  BSF    68.0
032F:  DECF   04,F
0330:  MOVF   00,W
0331:  ADDWF  6D,F
0332:  BTFSS  03.0
0333:  GOTO   337
0334:  INCF   6E,F
0335:  BTFSC  03.2
0336:  BSF    68.0
0337:  DECF   04,F
0338:  MOVF   00,W
0339:  BTFSS  00.7
033A:  XORLW  80
033B:  ADDWF  6E,F
033C:  BTFSC  03.0
033D:  BSF    68.0
033E:  BTFSC  6A.4
033F:  GOTO   233
0340:  BTFSC  6A.5
0341:  GOTO   275
0342:  GOTO   2AB
0343:  RETURN
0344:  MOVLW  8E
0345:  MOVWF  77
0346:  MOVF   5D,W
0347:  MOVWF  78
0348:  MOVF   5C,W
0349:  MOVWF  79
034A:  CLRF   7A
034B:  MOVF   78,F
034C:  BTFSS  03.2
034D:  GOTO   358
034E:  MOVF   79,W
034F:  MOVWF  78
0350:  CLRF   79
0351:  MOVLW  08
0352:  SUBWF  77,F
0353:  MOVF   78,F
0354:  BTFSS  03.2
0355:  GOTO   358
0356:  CLRF   77
0357:  GOTO   360
0358:  BCF    03.0
0359:  BTFSC  78.7
035A:  GOTO   35F
035B:  RLF    79,F
035C:  RLF    78,F
035D:  DECF   77,F
035E:  GOTO   358
035F:  BCF    78.7
0360:  BCF    0A.3
0361:  BCF    0A.4
0362:  GOTO   4EA (RETURN)
0363:  MOVLW  8E
0364:  MOVWF  77
0365:  MOVF   5C,W
0366:  SUBWF  77,F
0367:  MOVF   5D,W
0368:  MOVWF  79
0369:  MOVF   5E,W
036A:  MOVWF  78
036B:  BSF    79.7
036C:  MOVF   77,F
036D:  BTFSC  03.2
036E:  GOTO   37A
036F:  BCF    03.0
0370:  MOVF   79,F
0371:  BTFSS  03.2
0372:  GOTO   376
0373:  MOVF   78,F
0374:  BTFSC  03.2
0375:  GOTO   37A
0376:  RRF    79,F
0377:  RRF    78,F
0378:  DECFSZ 77,F
0379:  GOTO   36F
037A:  BTFSS  5D.7
037B:  GOTO   381
037C:  COMF   78,F
037D:  COMF   79,F
037E:  INCF   78,F
037F:  BTFSC  03.2
0380:  INCF   79,F
0381:  RETURN
0382:  MOVF   5D,W
0383:  MOVWF  64
0384:  MOVF   61,W
0385:  XORWF  64,F
0386:  BTFSS  64.7
0387:  GOTO   38D
0388:  BCF    03.2
0389:  BCF    03.0
038A:  BTFSC  5D.7
038B:  BSF    03.0
038C:  GOTO   3C0
038D:  MOVF   5D,W
038E:  MOVWF  64
038F:  MOVF   60,W
0390:  MOVWF  65
0391:  MOVF   5C,W
0392:  SUBWF  65,F
0393:  BTFSC  03.2
0394:  GOTO   39B
0395:  BTFSS  64.7
0396:  GOTO   3C0
0397:  MOVF   03,W
0398:  XORLW  01
0399:  MOVWF  03
039A:  GOTO   3C0
039B:  MOVF   61,W
039C:  MOVWF  65
039D:  MOVF   5D,W
039E:  SUBWF  65,F
039F:  BTFSC  03.2
03A0:  GOTO   3A7
03A1:  BTFSS  64.7
03A2:  GOTO   3C0
03A3:  MOVF   03,W
03A4:  XORLW  01
03A5:  MOVWF  03
03A6:  GOTO   3C0
03A7:  MOVF   62,W
03A8:  MOVWF  65
03A9:  MOVF   5E,W
03AA:  SUBWF  65,F
03AB:  BTFSC  03.2
03AC:  GOTO   3B3
03AD:  BTFSS  64.7
03AE:  GOTO   3C0
03AF:  MOVF   03,W
03B0:  XORLW  01
03B1:  MOVWF  03
03B2:  GOTO   3C0
03B3:  MOVF   63,W
03B4:  MOVWF  65
03B5:  MOVF   5F,W
03B6:  SUBWF  65,F
03B7:  BTFSC  03.2
03B8:  GOTO   3BF
03B9:  BTFSS  64.7
03BA:  GOTO   3C0
03BB:  MOVF   03,W
03BC:  XORLW  01
03BD:  MOVWF  03
03BE:  GOTO   3C0
03BF:  BCF    03.0
03C0:  RETURN
....................  
.................... #list 
....................  
....................  
.................... #FUSES NOWDT                    //No Watch Dog Timer 
.................... #FUSES NOBROWNOUT               //No brownout reset 
.................... #FUSES NOLVP                    //No low voltage prgming, B3(PIC16) or B5(PIC18) used for I/O 
....................  
.................... #use delay(crystal=8Mhz) 
.................... #use rs232(baud=9600,parity=N,xmit=PIN_C6,rcv=PIN_C7,bits=8,stream=PORT1) 
.................... #use i2c(Slave,sda=PIN_C4,scl=PIN_C3,force_hw,address=0x2a) 
*
0081:  MOVF   72,W
0082:  MOVWF  13
0083:  BSF    14.4
0084:  BCF    0C.3
0085:  BSF    03.5
0086:  BTFSC  14.0
0087:  GOTO   086
0088:  CLRF   78
0089:  BCF    03.5
008A:  BTFSC  14.4
008B:  INCF   78,F
....................  
.................... #use fast_io(B) 
....................  
....................  
.................... #define pi 3.14159 
....................   #define kp 29 
....................    #define ki 0.05 
....................     #define kd 0 
....................     #define dt 0.01 //100 HZ 
....................  
.................... signed int16 start_point=0; 
.................... float encoder_value=342.1; 
....................  signed long int counter = 0;  
....................  int aState; 
....................  int aLastState;   
....................  float errorOut; 
....................  int16 pwmOut; 
....................  float senPosition=0; 
.................... long  set_point=0; 
.................... float error,total_error=0; 
.................... float prev_error=0; 
....................  
....................  byte buffer[4]; 
....................  int8 state;  
....................  long x_1; 
....................  long  x_2; 
.................... byte deneme[4]; 
.................... int16 sayi_1=0; 
.................... int16 sayi_2=0; 
....................   
....................  #define outputA PIN_B4 
....................  #define outputB PIN_B5 
.................... #INT_RB                                      // RB port interrupt on change 
.................... void RB_IOC_ISR(void)  
.................... {disable_interrupts(INT_SSP); 
*
0038:  BSF    03.5
0039:  BCF    0C.3
....................    aState = input(outputA);  
003A:  BCF    03.5
003B:  CLRF   30
003C:  BTFSC  06.4
003D:  INCF   30,F
....................    if (aState != aLastState){ 
003E:  MOVF   31,W
003F:  SUBWF  30,W
0040:  BTFSC  03.2
0041:  GOTO   050
....................       
....................      if (input(outputB)  != aState) { 
0042:  MOVLW  00
0043:  BTFSC  06.5
0044:  MOVLW  01
0045:  SUBWF  30,W
0046:  BTFSC  03.2
0047:  GOTO   04C
....................        counter ++; 
0048:  INCF   2E,F
0049:  BTFSC  03.2
004A:  INCF   2F,F
....................      } else { 
004B:  GOTO   050
....................        counter --; 
004C:  MOVF   2E,W
004D:  BTFSC  03.2
004E:  DECF   2F,F
004F:  DECF   2E,F
....................      }} aLastState = aState; 
0050:  MOVF   30,W
0051:  MOVWF  31
....................       
....................      enable_interrupts(INT_SSP); 
0052:  BSF    03.5
0053:  BSF    0C.3
.................... } 
0054:  BCF    03.5
0055:  BCF    0B.0
0056:  BCF    0A.3
0057:  BCF    0A.4
0058:  GOTO   021
.................... #INT_SSP 
.................... void  SSP_isr(void)  
.................... { 
....................    state = i2c_isr_state(); 
0059:  BSF    03.5
005A:  BTFSC  14.5
005B:  GOTO   064
005C:  BCF    03.5
005D:  CLRF   5B
005E:  BSF    03.5
005F:  BTFSS  14.2
0060:  GOTO   064
0061:  BCF    03.5
0062:  BSF    5B.7
0063:  BSF    03.5
0064:  BCF    03.5
0065:  MOVF   5B,W
0066:  INCF   5B,F
0067:  MOVWF  4E
....................  
....................    if((state== 0 ) || (state== 0x80)) 
0068:  MOVF   4E,F
0069:  BTFSC  03.2
006A:  GOTO   06F
006B:  MOVF   4E,W
006C:  SUBLW  80
006D:  BTFSS  03.2
006E:  GOTO   074
....................  
....................    {  i2c_read();} 
006F:  BCF    14.6
0070:  BTFSS  0C.3
0071:  GOTO   070
0072:  MOVF   13,W
0073:  BSF    14.4
....................  
....................    if(state >= 0x80) 
0074:  MOVF   4E,W
0075:  SUBLW  7F
0076:  BTFSC  03.0
0077:  GOTO   08D
....................  
....................     {  i2c_write(deneme[state-0x80]);} 
0078:  MOVLW  80
0079:  SUBWF  4E,W
007A:  ADDLW  53
007B:  MOVWF  04
007C:  BCF    03.7
007D:  MOVF   00,W
007E:  MOVWF  71
007F:  MOVF   71,W
0080:  MOVWF  72
*
008C:  GOTO   09B
....................  
....................    else if(state > 0) 
008D:  MOVF   4E,F
008E:  BTFSC  03.2
008F:  GOTO   09B
....................  
....................     {  buffer[state - 1] = i2c_read();} 
0090:  MOVLW  01
0091:  SUBWF  4E,W
0092:  ADDLW  4A
0093:  MOVWF  04
0094:  BCF    03.7
0095:  BCF    14.6
0096:  BTFSS  0C.3
0097:  GOTO   096
0098:  MOVF   13,W
0099:  BSF    14.4
009A:  MOVWF  00
009B:  BCF    0C.3
009C:  BCF    0A.3
009D:  BCF    0A.4
009E:  GOTO   021
.................... } 
....................  
.................... void main() 
*
03C1:  MOVF   03,W
03C2:  ANDLW  1F
03C3:  MOVWF  03
03C4:  MOVLW  0C
03C5:  BSF    03.5
03C6:  MOVWF  19
03C7:  MOVLW  A2
03C8:  MOVWF  18
03C9:  MOVLW  90
03CA:  BCF    03.5
03CB:  MOVWF  18
03CC:  MOVLW  FF
03CD:  MOVWF  27
03CE:  BSF    27.3
03CF:  MOVF   27,W
03D0:  BSF    03.5
03D1:  MOVWF  07
03D2:  BCF    03.5
03D3:  BSF    27.4
03D4:  MOVF   27,W
03D5:  BSF    03.5
03D6:  MOVWF  07
03D7:  MOVLW  2A
03D8:  MOVWF  13
03D9:  MOVLW  36
03DA:  BCF    03.5
03DB:  MOVWF  14
03DC:  BSF    03.5
03DD:  BSF    11.0
03DE:  BCF    03.5
03DF:  CLRF   29
03E0:  CLRF   28
03E1:  MOVLW  CD
03E2:  MOVWF  2D
03E3:  MOVLW  0C
03E4:  MOVWF  2C
03E5:  MOVLW  2B
03E6:  MOVWF  2B
03E7:  MOVLW  87
03E8:  MOVWF  2A
03E9:  CLRF   2F
03EA:  CLRF   2E
03EB:  CLRF   3B
03EC:  CLRF   3A
03ED:  CLRF   39
03EE:  CLRF   38
03EF:  CLRF   3D
03F0:  CLRF   3C
03F1:  CLRF   45
03F2:  CLRF   44
03F3:  CLRF   43
03F4:  CLRF   42
03F5:  CLRF   49
03F6:  CLRF   48
03F7:  CLRF   47
03F8:  CLRF   46
03F9:  CLRF   58
03FA:  CLRF   57
03FB:  CLRF   5A
03FC:  CLRF   59
03FD:  MOVLW  03
03FE:  MOVWF  5B
03FF:  BSF    03.5
0400:  BSF    1F.0
0401:  BSF    1F.1
0402:  BSF    1F.2
0403:  BCF    1F.3
0404:  MOVLW  07
0405:  MOVWF  1C
0406:  BCF    03.7
.................... { 
....................  port_b_pullups(TRUE); 
0407:  BCF    01.7
....................    enable_interrupts(GLOBAL); 
0408:  MOVLW  C0
0409:  BCF    03.5
040A:  IORWF  0B,F
....................    clear_interrupt(INT_RB); 
040B:  BCF    0B.0
....................   enable_interrupts(INT_SSP); 
040C:  BSF    03.5
040D:  BSF    0C.3
....................    
....................  setup_timer_2(T2_DIV_BY_16,255,1); 
040E:  MOVLW  00
040F:  MOVWF  78
0410:  IORLW  06
0411:  BCF    03.5
0412:  MOVWF  12
0413:  MOVLW  FF
0414:  BSF    03.5
0415:  MOVWF  12
.................... set_tris_d(0x00);  
0416:  MOVLW  00
0417:  MOVWF  08
....................  output_high(pin_d1); 
0418:  BCF    08.1
0419:  BCF    03.5
041A:  BSF    08.1
....................  output_low(pin_d0); 
041B:  BSF    03.5
041C:  BCF    08.0
041D:  BCF    03.5
041E:  BCF    08.0
....................  
....................    setup_ccp1(CCP_PWM); 
041F:  BCF    27.2
0420:  MOVF   27,W
0421:  BSF    03.5
0422:  MOVWF  07
0423:  BCF    03.5
0424:  BCF    07.2
0425:  MOVLW  0C
0426:  MOVWF  17
....................    setup_ccp2(CCP_PWM); 
0427:  BCF    27.1
0428:  MOVF   27,W
0429:  BSF    03.5
042A:  MOVWF  07
042B:  BCF    03.5
042C:  BCF    07.1
042D:  MOVLW  0C
042E:  MOVWF  1D
.................... set_pwm1_duty((int16)0); 
042F:  CLRF   15
0430:  MOVF   17,W
0431:  ANDLW  CF
0432:  MOVWF  17
.................... set_pwm2_duty((int16)0); 
0433:  CLRF   1B
0434:  MOVF   1D,W
0435:  ANDLW  CF
0436:  MOVWF  1D
....................  
.................... deneme[1]=sayi_1 & 0xff; 
0437:  MOVF   57,W
0438:  MOVWF  54
.................... deneme[0]=(sayi_1 >> 8); 
0439:  MOVF   58,W
043A:  MOVWF  53
.................... deneme[3]=sayi_2 & 0xff; 
043B:  MOVF   59,W
043C:  MOVWF  56
.................... deneme[2]=(sayi_2 >> 8); 
043D:  MOVF   5A,W
043E:  MOVWF  55
.................... //delay_ms(2000); 
....................  while(input(PIN_B7)){ 
043F:  BTFSS  06.7
0440:  GOTO   44C
....................  set_pwm1_duty(200L); 
0441:  MOVLW  32
0442:  MOVWF  15
0443:  MOVF   17,W
0444:  ANDLW  CF
0445:  MOVWF  17
....................  set_pwm2_duty(200L); 
0446:  MOVLW  32
0447:  MOVWF  1B
0448:  MOVF   1D,W
0449:  ANDLW  CF
044A:  MOVWF  1D
044B:  GOTO   43F
....................  } 
....................  start_point=-176; 
044C:  MOVLW  FF
044D:  MOVWF  29
044E:  MOVLW  50
044F:  MOVWF  28
....................   enable_interrupts(INT_RB); 
0450:  BSF    0B.3
....................    while(TRUE) 
....................    { 
....................     x_1=buffer[0]; 
0451:  CLRF   50
0452:  MOVF   4A,W
0453:  MOVWF  4F
....................       x_1=x_1<<8; 
0454:  MOVF   4F,W
0455:  MOVWF  50
0456:  CLRF   4F
....................       x_1=x_1 & 0xFF00; 
0457:  CLRF   4F
....................       x_1=x_1 | buffer[1]; 
0458:  MOVF   4B,W
0459:  IORWF  4F,F
....................       set_point=x_1; 
045A:  MOVF   50,W
045B:  MOVWF  3D
045C:  MOVF   4F,W
045D:  MOVWF  3C
....................        x_2=buffer[2]; 
045E:  CLRF   52
045F:  MOVF   4C,W
0460:  MOVWF  51
....................       x_2=x_2<<8; 
0461:  MOVF   51,W
0462:  MOVWF  52
0463:  CLRF   51
....................       x_2=x_2 & 0xFF00; 
0464:  CLRF   51
....................       x_2=x_2 | buffer[3]; 
0465:  MOVF   4D,W
0466:  IORWF  51,F
.................... //set_point=90; 
....................    senPosition=pi*(counter/encoder_value); 
0467:  MOVF   2F,W
0468:  MOVWF  61
0469:  MOVF   2E,W
046A:  MOVWF  60
046B:  CALL   09F
046C:  MOVF   7A,W
046D:  MOVWF  63
046E:  MOVF   79,W
046F:  MOVWF  62
0470:  MOVF   78,W
0471:  MOVWF  61
0472:  MOVF   77,W
0473:  MOVWF  60
0474:  MOVF   2D,W
0475:  MOVWF  67
0476:  MOVF   2C,W
0477:  MOVWF  66
0478:  MOVF   2B,W
0479:  MOVWF  65
047A:  MOVF   2A,W
047B:  MOVWF  64
047C:  CALL   0C4
047D:  MOVLW  D0
047E:  MOVWF  67
047F:  MOVLW  0F
0480:  MOVWF  66
0481:  MOVLW  49
0482:  MOVWF  65
0483:  MOVLW  80
0484:  MOVWF  64
0485:  MOVF   7A,W
0486:  MOVWF  6B
0487:  MOVF   79,W
0488:  MOVWF  6A
0489:  MOVF   78,W
048A:  MOVWF  69
048B:  MOVF   77,W
048C:  MOVWF  68
048D:  CALL   18E
048E:  MOVF   7A,W
048F:  MOVWF  3B
0490:  MOVF   79,W
0491:  MOVWF  3A
0492:  MOVF   78,W
0493:  MOVWF  39
0494:  MOVF   77,W
0495:  MOVWF  38
....................      senPosition=((180*senPosition)/pi)+start_point; 
0496:  CLRF   67
0497:  CLRF   66
0498:  MOVLW  34
0499:  MOVWF  65
049A:  MOVLW  86
049B:  MOVWF  64
049C:  MOVF   3B,W
049D:  MOVWF  6B
049E:  MOVF   3A,W
049F:  MOVWF  6A
04A0:  MOVF   39,W
04A1:  MOVWF  69
04A2:  MOVF   38,W
04A3:  MOVWF  68
04A4:  CALL   18E
04A5:  MOVF   7A,W
04A6:  MOVWF  5F
04A7:  MOVF   79,W
04A8:  MOVWF  5E
04A9:  MOVF   78,W
04AA:  MOVWF  5D
04AB:  MOVF   77,W
04AC:  MOVWF  5C
04AD:  MOVF   7A,W
04AE:  MOVWF  63
04AF:  MOVF   79,W
04B0:  MOVWF  62
04B1:  MOVF   78,W
04B2:  MOVWF  61
04B3:  MOVF   77,W
04B4:  MOVWF  60
04B5:  MOVLW  D0
04B6:  MOVWF  67
04B7:  MOVLW  0F
04B8:  MOVWF  66
04B9:  MOVLW  49
04BA:  MOVWF  65
04BB:  MOVLW  80
04BC:  MOVWF  64
04BD:  CALL   0C4
04BE:  MOVF   7A,W
04BF:  MOVWF  5F
04C0:  MOVF   79,W
04C1:  MOVWF  5E
04C2:  MOVF   78,W
04C3:  MOVWF  5D
04C4:  MOVF   77,W
04C5:  MOVWF  5C
04C6:  MOVF   29,W
04C7:  MOVWF  61
04C8:  MOVF   28,W
04C9:  MOVWF  60
04CA:  CALL   09F
04CB:  BCF    03.1
04CC:  MOVF   5F,W
04CD:  MOVWF  63
04CE:  MOVF   5E,W
04CF:  MOVWF  62
04D0:  MOVF   5D,W
04D1:  MOVWF  61
04D2:  MOVF   5C,W
04D3:  MOVWF  60
04D4:  MOVF   7A,W
04D5:  MOVWF  67
04D6:  MOVF   79,W
04D7:  MOVWF  66
04D8:  MOVF   78,W
04D9:  MOVWF  65
04DA:  MOVF   77,W
04DB:  MOVWF  64
04DC:  CALL   203
04DD:  MOVF   7A,W
04DE:  MOVWF  3B
04DF:  MOVF   79,W
04E0:  MOVWF  3A
04E1:  MOVF   78,W
04E2:  MOVWF  39
04E3:  MOVF   77,W
04E4:  MOVWF  38
....................       error= set_point-senPosition-500; 
04E5:  MOVF   3D,W
04E6:  MOVWF  5D
04E7:  MOVF   3C,W
04E8:  MOVWF  5C
04E9:  GOTO   344
04EA:  BSF    03.1
04EB:  MOVF   7A,W
04EC:  MOVWF  63
04ED:  MOVF   79,W
04EE:  MOVWF  62
04EF:  MOVF   78,W
04F0:  MOVWF  61
04F1:  MOVF   77,W
04F2:  MOVWF  60
04F3:  MOVF   3B,W
04F4:  MOVWF  67
04F5:  MOVF   3A,W
04F6:  MOVWF  66
04F7:  MOVF   39,W
04F8:  MOVWF  65
04F9:  MOVF   38,W
04FA:  MOVWF  64
04FB:  CALL   203
04FC:  MOVF   7A,W
04FD:  MOVWF  5F
04FE:  MOVF   79,W
04FF:  MOVWF  5E
0500:  MOVF   78,W
0501:  MOVWF  5D
0502:  MOVF   77,W
0503:  MOVWF  5C
0504:  BSF    03.1
0505:  MOVF   7A,W
0506:  MOVWF  63
0507:  MOVF   79,W
0508:  MOVWF  62
0509:  MOVF   78,W
050A:  MOVWF  61
050B:  MOVF   77,W
050C:  MOVWF  60
050D:  CLRF   67
050E:  CLRF   66
050F:  MOVLW  7A
0510:  MOVWF  65
0511:  MOVLW  87
0512:  MOVWF  64
0513:  CALL   203
0514:  MOVF   7A,W
0515:  MOVWF  41
0516:  MOVF   79,W
0517:  MOVWF  40
0518:  MOVF   78,W
0519:  MOVWF  3F
051A:  MOVF   77,W
051B:  MOVWF  3E
....................       sayi_1=error; 
051C:  MOVF   41,W
051D:  MOVWF  5F
051E:  MOVF   40,W
051F:  MOVWF  5E
0520:  MOVF   3F,W
0521:  MOVWF  5D
0522:  MOVF   3E,W
0523:  MOVWF  5C
0524:  CALL   363
0525:  MOVF   79,W
0526:  MOVWF  58
0527:  MOVF   78,W
0528:  MOVWF  57
....................       sayi_2=senPosition; 
0529:  MOVF   3B,W
052A:  MOVWF  5F
052B:  MOVF   3A,W
052C:  MOVWF  5E
052D:  MOVF   39,W
052E:  MOVWF  5D
052F:  MOVF   38,W
0530:  MOVWF  5C
0531:  CALL   363
0532:  MOVF   79,W
0533:  MOVWF  5A
0534:  MOVF   78,W
0535:  MOVWF  59
.................... deneme[1]=sayi_1 & 0xff; 
0536:  MOVF   57,W
0537:  MOVWF  54
.................... deneme[0]=(sayi_1 >> 8); 
0538:  MOVF   58,W
0539:  MOVWF  53
.................... deneme[3]=sayi_2 & 0xff; 
053A:  MOVF   59,W
053B:  MOVWF  56
.................... deneme[2]=(sayi_2 >> 8); 
053C:  MOVF   5A,W
053D:  MOVWF  55
....................        
....................       
....................       total_error=total_error+error; 
053E:  BCF    03.1
053F:  MOVF   45,W
0540:  MOVWF  63
0541:  MOVF   44,W
0542:  MOVWF  62
0543:  MOVF   43,W
0544:  MOVWF  61
0545:  MOVF   42,W
0546:  MOVWF  60
0547:  MOVF   41,W
0548:  MOVWF  67
0549:  MOVF   40,W
054A:  MOVWF  66
054B:  MOVF   3F,W
054C:  MOVWF  65
054D:  MOVF   3E,W
054E:  MOVWF  64
054F:  CALL   203
0550:  MOVF   7A,W
0551:  MOVWF  45
0552:  MOVF   79,W
0553:  MOVWF  44
0554:  MOVF   78,W
0555:  MOVWF  43
0556:  MOVF   77,W
0557:  MOVWF  42
....................    
....................       if(total_error>1000){total_error=1000;} 
0558:  CLRF   5F
0559:  CLRF   5E
055A:  MOVLW  7A
055B:  MOVWF  5D
055C:  MOVLW  88
055D:  MOVWF  5C
055E:  MOVF   45,W
055F:  MOVWF  63
0560:  MOVF   44,W
0561:  MOVWF  62
0562:  MOVF   43,W
0563:  MOVWF  61
0564:  MOVF   42,W
0565:  MOVWF  60
0566:  CALL   382
0567:  BTFSS  03.0
0568:  GOTO   56F
0569:  CLRF   45
056A:  CLRF   44
056B:  MOVLW  7A
056C:  MOVWF  43
056D:  MOVLW  88
056E:  MOVWF  42
....................   
....................       if(total_error<-1000){total_error=-1000;} 
056F:  MOVF   45,W
0570:  MOVWF  5F
0571:  MOVF   44,W
0572:  MOVWF  5E
0573:  MOVF   43,W
0574:  MOVWF  5D
0575:  MOVF   42,W
0576:  MOVWF  5C
0577:  CLRF   63
0578:  CLRF   62
0579:  MOVLW  FA
057A:  MOVWF  61
057B:  MOVLW  88
057C:  MOVWF  60
057D:  CALL   382
057E:  BTFSS  03.0
057F:  GOTO   586
0580:  CLRF   45
0581:  CLRF   44
0582:  MOVLW  FA
0583:  MOVWF  43
0584:  MOVLW  88
0585:  MOVWF  42
....................   
....................       errorOut=kp*(error)+(dt*total_error)*(ki)+(prev_error-error)*(1/dt)*kd; 
0586:  CLRF   67
0587:  CLRF   66
0588:  MOVLW  68
0589:  MOVWF  65
058A:  MOVLW  83
058B:  MOVWF  64
058C:  MOVF   41,W
058D:  MOVWF  6B
058E:  MOVF   40,W
058F:  MOVWF  6A
0590:  MOVF   3F,W
0591:  MOVWF  69
0592:  MOVF   3E,W
0593:  MOVWF  68
0594:  CALL   18E
0595:  MOVF   7A,W
0596:  MOVWF  5F
0597:  MOVF   79,W
0598:  MOVWF  5E
0599:  MOVF   78,W
059A:  MOVWF  5D
059B:  MOVF   77,W
059C:  MOVWF  5C
059D:  MOVLW  0A
059E:  MOVWF  67
059F:  MOVLW  D7
05A0:  MOVWF  66
05A1:  MOVLW  23
05A2:  MOVWF  65
05A3:  MOVLW  78
05A4:  MOVWF  64
05A5:  MOVF   45,W
05A6:  MOVWF  6B
05A7:  MOVF   44,W
05A8:  MOVWF  6A
05A9:  MOVF   43,W
05AA:  MOVWF  69
05AB:  MOVF   42,W
05AC:  MOVWF  68
05AD:  CALL   18E
05AE:  MOVF   7A,W
05AF:  MOVWF  63
05B0:  MOVF   79,W
05B1:  MOVWF  62
05B2:  MOVF   78,W
05B3:  MOVWF  61
05B4:  MOVF   77,W
05B5:  MOVWF  60
05B6:  MOVF   7A,W
05B7:  MOVWF  67
05B8:  MOVF   79,W
05B9:  MOVWF  66
05BA:  MOVF   78,W
05BB:  MOVWF  65
05BC:  MOVF   77,W
05BD:  MOVWF  64
05BE:  MOVLW  CD
05BF:  MOVWF  6B
05C0:  MOVLW  CC
05C1:  MOVWF  6A
05C2:  MOVLW  4C
05C3:  MOVWF  69
05C4:  MOVLW  7A
05C5:  MOVWF  68
05C6:  CALL   18E
05C7:  BCF    03.1
05C8:  MOVF   5F,W
05C9:  MOVWF  63
05CA:  MOVF   5E,W
05CB:  MOVWF  62
05CC:  MOVF   5D,W
05CD:  MOVWF  61
05CE:  MOVF   5C,W
05CF:  MOVWF  60
05D0:  MOVF   7A,W
05D1:  MOVWF  67
05D2:  MOVF   79,W
05D3:  MOVWF  66
05D4:  MOVF   78,W
05D5:  MOVWF  65
05D6:  MOVF   77,W
05D7:  MOVWF  64
05D8:  CALL   203
05D9:  MOVF   7A,W
05DA:  MOVWF  5F
05DB:  MOVF   79,W
05DC:  MOVWF  5E
05DD:  MOVF   78,W
05DE:  MOVWF  5D
05DF:  MOVF   77,W
05E0:  MOVWF  5C
05E1:  BSF    03.1
05E2:  MOVF   49,W
05E3:  MOVWF  63
05E4:  MOVF   48,W
05E5:  MOVWF  62
05E6:  MOVF   47,W
05E7:  MOVWF  61
05E8:  MOVF   46,W
05E9:  MOVWF  60
05EA:  MOVF   41,W
05EB:  MOVWF  67
05EC:  MOVF   40,W
05ED:  MOVWF  66
05EE:  MOVF   3F,W
05EF:  MOVWF  65
05F0:  MOVF   3E,W
05F1:  MOVWF  64
05F2:  CALL   203
05F3:  MOVF   7A,W
05F4:  MOVWF  63
05F5:  MOVF   79,W
05F6:  MOVWF  62
05F7:  MOVF   78,W
05F8:  MOVWF  61
05F9:  MOVF   77,W
05FA:  MOVWF  60
05FB:  MOVF   7A,W
05FC:  MOVWF  67
05FD:  MOVF   79,W
05FE:  MOVWF  66
05FF:  MOVF   78,W
0600:  MOVWF  65
0601:  MOVF   77,W
0602:  MOVWF  64
0603:  CLRF   6B
0604:  CLRF   6A
0605:  MOVLW  48
0606:  MOVWF  69
0607:  MOVLW  85
0608:  MOVWF  68
0609:  CALL   18E
060A:  MOVF   7A,W
060B:  MOVWF  63
060C:  MOVF   79,W
060D:  MOVWF  62
060E:  MOVF   78,W
060F:  MOVWF  61
0610:  MOVF   77,W
0611:  MOVWF  60
0612:  MOVF   7A,W
0613:  MOVWF  67
0614:  MOVF   79,W
0615:  MOVWF  66
0616:  MOVF   78,W
0617:  MOVWF  65
0618:  MOVF   77,W
0619:  MOVWF  64
061A:  CLRF   6B
061B:  CLRF   6A
061C:  CLRF   69
061D:  CLRF   68
061E:  CALL   18E
061F:  BCF    03.1
0620:  MOVF   5F,W
0621:  MOVWF  63
0622:  MOVF   5E,W
0623:  MOVWF  62
0624:  MOVF   5D,W
0625:  MOVWF  61
0626:  MOVF   5C,W
0627:  MOVWF  60
0628:  MOVF   7A,W
0629:  MOVWF  67
062A:  MOVF   79,W
062B:  MOVWF  66
062C:  MOVF   78,W
062D:  MOVWF  65
062E:  MOVF   77,W
062F:  MOVWF  64
0630:  CALL   203
0631:  MOVF   7A,W
0632:  MOVWF  35
0633:  MOVF   79,W
0634:  MOVWF  34
0635:  MOVF   78,W
0636:  MOVWF  33
0637:  MOVF   77,W
0638:  MOVWF  32
....................    
....................       prev_error=error; 
0639:  MOVF   41,W
063A:  MOVWF  49
063B:  MOVF   40,W
063C:  MOVWF  48
063D:  MOVF   3F,W
063E:  MOVWF  47
063F:  MOVF   3E,W
0640:  MOVWF  46
....................        
....................  sayi_1=pwmOut; 
0641:  MOVF   37,W
0642:  MOVWF  58
0643:  MOVF   36,W
0644:  MOVWF  57
....................      if(errorOut>1023){errorOut=1023;} 
0645:  CLRF   5F
0646:  MOVLW  C0
0647:  MOVWF  5E
0648:  MOVLW  7F
0649:  MOVWF  5D
064A:  MOVLW  88
064B:  MOVWF  5C
064C:  MOVF   35,W
064D:  MOVWF  63
064E:  MOVF   34,W
064F:  MOVWF  62
0650:  MOVF   33,W
0651:  MOVWF  61
0652:  MOVF   32,W
0653:  MOVWF  60
0654:  CALL   382
0655:  BTFSS  03.0
0656:  GOTO   65E
0657:  CLRF   35
0658:  MOVLW  C0
0659:  MOVWF  34
065A:  MOVLW  7F
065B:  MOVWF  33
065C:  MOVLW  88
065D:  MOVWF  32
....................    
....................       if(errorOut<-1023){errorOut=-1023;} 
065E:  MOVF   35,W
065F:  MOVWF  5F
0660:  MOVF   34,W
0661:  MOVWF  5E
0662:  MOVF   33,W
0663:  MOVWF  5D
0664:  MOVF   32,W
0665:  MOVWF  5C
0666:  CLRF   63
0667:  MOVLW  C0
0668:  MOVWF  62
0669:  MOVLW  FF
066A:  MOVWF  61
066B:  MOVLW  88
066C:  MOVWF  60
066D:  CALL   382
066E:  BTFSS  03.0
066F:  GOTO   677
0670:  CLRF   35
0671:  MOVLW  C0
0672:  MOVWF  34
0673:  MOVLW  FF
0674:  MOVWF  33
0675:  MOVLW  88
0676:  MOVWF  32
.................... if(errorOut>0){pwmOut=errorOut/1.3; 
0677:  CLRF   5F
0678:  CLRF   5E
0679:  CLRF   5D
067A:  CLRF   5C
067B:  MOVF   35,W
067C:  MOVWF  63
067D:  MOVF   34,W
067E:  MOVWF  62
067F:  MOVF   33,W
0680:  MOVWF  61
0681:  MOVF   32,W
0682:  MOVWF  60
0683:  CALL   382
0684:  BTFSS  03.0
0685:  GOTO   6D1
0686:  MOVF   35,W
0687:  MOVWF  63
0688:  MOVF   34,W
0689:  MOVWF  62
068A:  MOVF   33,W
068B:  MOVWF  61
068C:  MOVF   32,W
068D:  MOVWF  60
068E:  MOVLW  66
068F:  MOVWF  67
0690:  MOVWF  66
0691:  MOVLW  26
0692:  MOVWF  65
0693:  MOVLW  7F
0694:  MOVWF  64
0695:  CALL   0C4
0696:  MOVF   7A,W
0697:  MOVWF  5F
0698:  MOVF   79,W
0699:  MOVWF  5E
069A:  MOVF   78,W
069B:  MOVWF  5D
069C:  MOVF   77,W
069D:  MOVWF  5C
069E:  CALL   363
069F:  MOVF   79,W
06A0:  MOVWF  37
06A1:  MOVF   78,W
06A2:  MOVWF  36
....................  output_high(pin_d0); 
06A3:  BSF    03.5
06A4:  BCF    08.0
06A5:  BCF    03.5
06A6:  BSF    08.0
....................  output_low(pin_d1); 
06A7:  BSF    03.5
06A8:  BCF    08.1
06A9:  BCF    03.5
06AA:  BCF    08.1
.................... //set_pwm1_duty(0); 
....................     set_pwm2_duty(pwmOut); 
06AB:  MOVF   37,W
06AC:  MOVWF  79
06AD:  MOVF   36,W
06AE:  MOVWF  78
06AF:  RRF    79,F
06B0:  RRF    78,F
06B1:  RRF    79,F
06B2:  RRF    78,F
06B3:  RRF    79,F
06B4:  MOVF   78,W
06B5:  MOVWF  1B
06B6:  RRF    79,F
06B7:  RRF    79,W
06B8:  ANDLW  30
06B9:  MOVWF  77
06BA:  MOVF   1D,W
06BB:  ANDLW  CF
06BC:  IORWF  77,W
06BD:  MOVWF  1D
....................      set_pwm1_duty(pwmOut); 
06BE:  MOVF   37,W
06BF:  MOVWF  79
06C0:  MOVF   36,W
06C1:  MOVWF  78
06C2:  RRF    79,F
06C3:  RRF    78,F
06C4:  RRF    79,F
06C5:  RRF    78,F
06C6:  RRF    79,F
06C7:  MOVF   78,W
06C8:  MOVWF  15
06C9:  RRF    79,F
06CA:  RRF    79,W
06CB:  ANDLW  30
06CC:  MOVWF  77
06CD:  MOVF   17,W
06CE:  ANDLW  CF
06CF:  IORWF  77,W
06D0:  MOVWF  17
.................... } 
....................   
....................  
.................... if(errorOut<0){ 
06D1:  MOVF   35,W
06D2:  MOVWF  5F
06D3:  MOVF   34,W
06D4:  MOVWF  5E
06D5:  MOVF   33,W
06D6:  MOVWF  5D
06D7:  MOVF   32,W
06D8:  MOVWF  5C
06D9:  CLRF   63
06DA:  CLRF   62
06DB:  CLRF   61
06DC:  CLRF   60
06DD:  CALL   382
06DE:  BTFSS  03.0
06DF:  GOTO   742
.................... //digitalWrite(en2, LOW); 
.................... pwmOut=-1*errorOut/1.3; 
06E0:  CLRF   67
06E1:  CLRF   66
06E2:  MOVLW  80
06E3:  MOVWF  65
06E4:  MOVLW  7F
06E5:  MOVWF  64
06E6:  MOVF   35,W
06E7:  MOVWF  6B
06E8:  MOVF   34,W
06E9:  MOVWF  6A
06EA:  MOVF   33,W
06EB:  MOVWF  69
06EC:  MOVF   32,W
06ED:  MOVWF  68
06EE:  CALL   18E
06EF:  MOVF   7A,W
06F0:  MOVWF  5F
06F1:  MOVF   79,W
06F2:  MOVWF  5E
06F3:  MOVF   78,W
06F4:  MOVWF  5D
06F5:  MOVF   77,W
06F6:  MOVWF  5C
06F7:  MOVF   7A,W
06F8:  MOVWF  63
06F9:  MOVF   79,W
06FA:  MOVWF  62
06FB:  MOVF   78,W
06FC:  MOVWF  61
06FD:  MOVF   77,W
06FE:  MOVWF  60
06FF:  MOVLW  66
0700:  MOVWF  67
0701:  MOVWF  66
0702:  MOVLW  26
0703:  MOVWF  65
0704:  MOVLW  7F
0705:  MOVWF  64
0706:  CALL   0C4
0707:  MOVF   7A,W
0708:  MOVWF  5F
0709:  MOVF   79,W
070A:  MOVWF  5E
070B:  MOVF   78,W
070C:  MOVWF  5D
070D:  MOVF   77,W
070E:  MOVWF  5C
070F:  CALL   363
0710:  MOVF   79,W
0711:  MOVWF  37
0712:  MOVF   78,W
0713:  MOVWF  36
.................... output_high(pin_d1); 
0714:  BSF    03.5
0715:  BCF    08.1
0716:  BCF    03.5
0717:  BSF    08.1
....................  output_low(pin_d0); 
0718:  BSF    03.5
0719:  BCF    08.0
071A:  BCF    03.5
071B:  BCF    08.0
.................... set_pwm1_duty(pwmOut); 
071C:  MOVF   37,W
071D:  MOVWF  79
071E:  MOVF   36,W
071F:  MOVWF  78
0720:  RRF    79,F
0721:  RRF    78,F
0722:  RRF    79,F
0723:  RRF    78,F
0724:  RRF    79,F
0725:  MOVF   78,W
0726:  MOVWF  15
0727:  RRF    79,F
0728:  RRF    79,W
0729:  ANDLW  30
072A:  MOVWF  77
072B:  MOVF   17,W
072C:  ANDLW  CF
072D:  IORWF  77,W
072E:  MOVWF  17
.................... set_pwm2_duty(pwmOut); 
072F:  MOVF   37,W
0730:  MOVWF  79
0731:  MOVF   36,W
0732:  MOVWF  78
0733:  RRF    79,F
0734:  RRF    78,F
0735:  RRF    79,F
0736:  RRF    78,F
0737:  RRF    79,F
0738:  MOVF   78,W
0739:  MOVWF  1B
073A:  RRF    79,F
073B:  RRF    79,W
073C:  ANDLW  30
073D:  MOVWF  77
073E:  MOVF   1D,W
073F:  ANDLW  CF
0740:  IORWF  77,W
0741:  MOVWF  1D
....................     //set_pwm2_duty(0);   
.................... } 
0742:  GOTO   451
.................... //printf("%ld \n",(int16)pwmOut); 
....................    //delay_ms (5); 
....................  
....................      
....................     } 
....................    
....................  
.................... } 
....................  
0743:  SLEEP

Configuration Fuses:
   Word  1: 3F32   HS NOWDT PUT NOBROWNOUT NOLVP NOCPD NOWRT NODEBUG NOPROTECT
